target datalayout = "e-m:e-p270:32:32-p271:32:32-p272:64:64-i64:64-i128:128-f80:128-n8:16:32:64-S128"
target triple = "x86_64-pc-linux-gnu"

@stderr = external global ptr, align 8
@infile = internal global ptr null, align 8
@.str.11 = private unnamed_addr constant [4 x i8] c"%s\0A\00", align 1
@.str.16 = private unnamed_addr constant [27 x i8] c"Premature EOF in JPEG file\00", align 1
@.str.34 = private unnamed_addr constant [29 x i8] c"Erroneous JPEG marker length\00", align 1

; Function Attrs: nounwind uwtable
define internal i32 @read_1_byte() #0 {
  %1 = alloca i32, align 4
  %2 = load ptr, ptr @infile, align 8
  %3 = call i32 @getc(ptr noundef %2)
  store i32 %3, ptr %1, align 4
  %4 = load i32, ptr %1, align 4
  %5 = icmp eq i32 %4, -1
  br i1 %5, label %6, label %9

6:                                                ; preds = %0
  %7 = load ptr, ptr @stderr, align 8
  %8 = call i32 (ptr, ptr, ...) @fprintf(ptr noundef %7, ptr noundef @.str.11, ptr noundef @.str.16) #6
  call void @exit(i32 noundef 1) #7
  unreachable

9:                                                ; preds = %0
  %10 = load i32, ptr %1, align 4
  ret i32 %10
}

; Function Attrs: nounwind uwtable
define internal void @skip_variable() #0 {
  %1 = alloca i32, align 4
  %2 = call i32 @read_2_bytes()
  store i32 %2, ptr %1, align 4
  %3 = load i32, ptr %1, align 4
  %4 = icmp ult i32 %3, 2
  br i1 %4, label %5, label %8

5:                                                ; preds = %0
  %6 = load ptr, ptr @stderr, align 8
  %7 = call i32 (ptr, ptr, ...) @fprintf(ptr noundef %6, ptr noundef @.str.11, ptr noundef @.str.34) #6
  call void @exit(i32 noundef 1) #7
  unreachable

8:                                                ; preds = %0
  %9 = load i32, ptr %1, align 4
  %10 = sub i32 %9, 2
  store i32 %10, ptr %1, align 4
  br label %11

11:                                               ; preds = %14, %8
  %12 = load i32, ptr %1, align 4
  %13 = icmp ugt i32 %12, 0
  br i1 %13, label %14, label %18

14:                                               ; preds = %11
  %15 = call i32 @read_1_byte()
  %16 = load i32, ptr %1, align 4
  %17 = add i32 %16, -1
  store i32 %17, ptr %1, align 4
  br label %11, !llvm.loop !11

18:                                               ; preds = %11
  ret void
}