; Function Attrs: nounwind uwtable
define internal fastcc void @skip_variable() unnamed_addr #3 {
  %1 = tail call fastcc i32 @read_2_bytes()
  %2 = icmp ult i32 %1, 2
  br i1 %2, label %3, label %6

3:                                                ; preds = %0
  %4 = load ptr, ptr @stderr, align 8
  %5 = tail call i32 (ptr, ptr, ...) @fprintf(ptr noundef %4, ptr noundef nonnull @.str.11, ptr noundef nonnull @.str.34) #11
  tail call void @exit(i32 noundef 1) #12
  unreachable

6:                                                ; preds = %0
  %7 = add i32 %1, -2
  %.not5 = icmp eq i32 %7, 0
  br i1 %.not5, label %._crit_edge, label %read_1_byte.exit

8:                                                ; preds = %read_1_byte.exit
  %9 = add i32 %.06, -1
  %.not = icmp eq i32 %9, 0
  br i1 %.not, label %._crit_edge, label %read_1_byte.exit, !llvm.loop !9

read_1_byte.exit:                                 ; preds = %6, %8
  %.06 = phi i32 [ %9, %8 ], [ %7, %6 ]
  %10 = load ptr, ptr @infile, align 8
  %11 = tail call i32 @getc(ptr noundef %10)
  %12 = icmp eq i32 %11, -1
  br i1 %12, label %13, label %8

13:                                               ; preds = %read_1_byte.exit
  %14 = load ptr, ptr @stderr, align 8
  %15 = tail call i32 (ptr, ptr, ...) @fprintf(ptr noundef %14, ptr noundef nonnull @.str.11, ptr noundef nonnull @.str.16) #11
  tail call void @exit(i32 noundef 1) #12
  unreachable

._crit_edge:                                      ; preds = %8, %6
  ret void
}